; Function Attrs: mustprogress nofree nounwind willreturn memory(read, inaccessiblemem: none) uwtable
define range(i32 0, 2) i32 @grpc_slice_eq(ptr noundef readonly byval(%struct.grpc_slice) align 8 captures(none) %0, ptr noundef readonly byval(%struct.grpc_slice) align 8 captures(none) %1) local_unnamed_addr #13 {
  %3 = load ptr, ptr %0, align 8, !tbaa !3
  %.not = icmp eq ptr %3, null
  %4 = getelementptr inbounds nuw i8, ptr %0, i64 8
  %5 = load i64, ptr %4, align 8
  %6 = and i64 %5, 255
  %7 = select i1 %.not, i64 %6, i64 %5
  %8 = load ptr, ptr %1, align 8, !tbaa !3
  %.not1 = icmp eq ptr %8, null
  %9 = getelementptr inbounds nuw i8, ptr %1, i64 8
  %10 = load i64, ptr %9, align 8
  %11 = and i64 %10, 255
  %12 = select i1 %.not1, i64 %11, i64 %10
  %.not2 = icmp eq i64 %7, %12
  br i1 %.not2, label %13, label %26

13:                                               ; preds = %2
  %14 = icmp eq i64 %7, 0
  br i1 %14, label %26, label %15

15:                                               ; preds = %13
  %16 = getelementptr inbounds nuw i8, ptr %0, i64 16
  %17 = load ptr, ptr %16, align 8
  %18 = getelementptr inbounds nuw i8, ptr %0, i64 9
  %19 = select i1 %.not, ptr %18, ptr %17
  %20 = getelementptr inbounds nuw i8, ptr %1, i64 16
  %21 = load ptr, ptr %20, align 8
  %22 = getelementptr inbounds nuw i8, ptr %1, i64 9
  %23 = select i1 %.not1, ptr %22, ptr %21
  %bcmp = call i32 @bcmp(ptr %19, ptr %23, i64 %7)
  %24 = icmp eq i32 %bcmp, 0
  %25 = zext i1 %24 to i32
  br label %26

26:                                               ; preds = %13, %2, %15
  %.0 = phi i32 [ %25, %15 ], [ 0, %2 ], [ 1, %13 ]
  ret i32 %.0
}